target datalayout = "e-m:e-p270:32:32-p271:32:32-p272:64:64-i64:64-i128:128-f80:128-n8:16:32:64-S128"
target triple = "x86_64-pc-linux-gnu"

%"class.nix::PosIdx" = type { i32 }
%"class.std::__cxx11::basic_string" = type { %"struct.std::__cxx11::basic_string<char>::_Alloc_hider", i64, %union.anon.23 }
%"struct.std::__cxx11::basic_string<char>::_Alloc_hider" = type { ptr }
%union.anon.23 = type { i64, [8 x i8] }
%"class.std::allocator.20" = type { i8 }

@.str.41 = private unnamed_addr constant [1 x i8] zeroinitializer, align 1
@.str.98 = private unnamed_addr constant [9 x i8] c"fetchurl\00", align 1

; Function Attrs: mustprogress uwtable
define internal void @_ZN3nixL13prim_fetchurlERNS_9EvalStateENS_6PosIdxEPPNS_5ValueERS3_(ptr noundef nonnull align 8 dereferenceable(1248) %0, i32 %1, ptr noundef %2, ptr noundef nonnull align 8 dereferenceable(24) %3) #5 personality ptr @__gxx_personality_v0 {
  %5 = alloca %"class.nix::PosIdx", align 4
  %6 = alloca ptr, align 8
  %7 = alloca ptr, align 8
  %8 = alloca ptr, align 8
  %9 = alloca %"class.nix::PosIdx", align 4
  %10 = alloca %"class.std::__cxx11::basic_string", align 8
  %11 = alloca %"class.std::allocator.20", align 1
  %12 = alloca ptr, align 8
  %13 = alloca i32, align 4
  %14 = alloca %"class.std::__cxx11::basic_string", align 8
  %15 = alloca %"class.std::allocator.20", align 1
  %16 = getelementptr inbounds %"class.nix::PosIdx", ptr %5, i32 0, i32 0
  store i32 %1, ptr %16, align 4
  store ptr %0, ptr %6, align 8
  store ptr %2, ptr %7, align 8
  store ptr %3, ptr %8, align 8
  %17 = load ptr, ptr %6, align 8
  call void @llvm.memcpy.p0.p0.i64(ptr align 4 %9, ptr align 4 %5, i64 4, i1 false)
  %18 = load ptr, ptr %7, align 8
  %19 = load ptr, ptr %8, align 8
  call void @_ZNSaIcEC1Ev(ptr noundef nonnull align 1 dereferenceable(1) %11) #1
  invoke void @_ZNSt7__cxx1112basic_stringIcSt11char_traitsIcESaIcEEC2IS3_EEPKcRKS3_(ptr noundef nonnull align 8 dereferenceable(32) %10, ptr noundef @.str.98, ptr noundef nonnull align 1 dereferenceable(1) %11)
          to label %20 unwind label %25

20:                                               ; preds = %4
  call void @_ZNSaIcEC1Ev(ptr noundef nonnull align 1 dereferenceable(1) %15) #1
  invoke void @_ZNSt7__cxx1112basic_stringIcSt11char_traitsIcESaIcEEC2IS3_EEPKcRKS3_(ptr noundef nonnull align 8 dereferenceable(32) %14, ptr noundef @.str.41, ptr noundef nonnull align 1 dereferenceable(1) %15)
          to label %21 unwind label %29

21:                                               ; preds = %20
  %22 = getelementptr inbounds %"class.nix::PosIdx", ptr %9, i32 0, i32 0
  %23 = load i32, ptr %22, align 4
  invoke void @_ZN3nixL5fetchERNS_9EvalStateENS_6PosIdxEPPNS_5ValueERS3_RKNSt7__cxx1112basic_stringIcSt11char_traitsIcESaIcEEEbSC_(ptr noundef nonnull align 8 dereferenceable(1248) %17, i32 %23, ptr noundef %18, ptr noundef nonnull align 8 dereferenceable(24) %19, ptr noundef nonnull align 8 dereferenceable(32) %10, i1 noundef zeroext false, ptr noundef %14)
          to label %24 unwind label %33

24:                                               ; preds = %21
  call void @_ZNSt7__cxx1112basic_stringIcSt11char_traitsIcESaIcEED2Ev(ptr noundef nonnull align 8 dereferenceable(32) %14) #1
  call void @_ZNSaIcED1Ev(ptr noundef nonnull align 1 dereferenceable(1) %15) #1
  call void @_ZNSt7__cxx1112basic_stringIcSt11char_traitsIcESaIcEED2Ev(ptr noundef nonnull align 8 dereferenceable(32) %10) #1
  call void @_ZNSaIcED1Ev(ptr noundef nonnull align 1 dereferenceable(1) %11) #1
  ret void

25:                                               ; preds = %4
  %26 = landingpad { ptr, i32 }
          cleanup
  %27 = extractvalue { ptr, i32 } %26, 0
  store ptr %27, ptr %12, align 8
  %28 = extractvalue { ptr, i32 } %26, 1
  store i32 %28, ptr %13, align 4
  br label %38

29:                                               ; preds = %20
  %30 = landingpad { ptr, i32 }
          cleanup
  %31 = extractvalue { ptr, i32 } %30, 0
  store ptr %31, ptr %12, align 8
  %32 = extractvalue { ptr, i32 } %30, 1
  store i32 %32, ptr %13, align 4
  br label %37

33:                                               ; preds = %21
  %34 = landingpad { ptr, i32 }
          cleanup
  %35 = extractvalue { ptr, i32 } %34, 0
  store ptr %35, ptr %12, align 8
  %36 = extractvalue { ptr, i32 } %34, 1
  store i32 %36, ptr %13, align 4
  call void @_ZNSt7__cxx1112basic_stringIcSt11char_traitsIcESaIcEED2Ev(ptr noundef nonnull align 8 dereferenceable(32) %14) #1
  br label %37

37:                                               ; preds = %33, %29
  call void @_ZNSaIcED1Ev(ptr noundef nonnull align 1 dereferenceable(1) %15) #1
  call void @_ZNSt7__cxx1112basic_stringIcSt11char_traitsIcESaIcEED2Ev(ptr noundef nonnull align 8 dereferenceable(32) %10) #1
  br label %38

38:                                               ; preds = %37, %25
  call void @_ZNSaIcED1Ev(ptr noundef nonnull align 1 dereferenceable(1) %11) #1
  br label %39

39:                                               ; preds = %38
  %40 = load ptr, ptr %12, align 8
  %41 = load i32, ptr %13, align 4
  %42 = insertvalue { ptr, i32 } poison, ptr %40, 0
  %43 = insertvalue { ptr, i32 } %42, i32 %41, 1
  resume { ptr, i32 } %43
}